target datalayout = "e-m:e-p270:32:32-p271:32:32-p272:64:64-i64:64-i128:128-f80:128-n8:16:32:64-S128"
target triple = "x86_64-unknown-linux-gnu"

%struct.MemTxAttrs = type { i32 }

; Function Attrs: nounwind sspstrong uwtable
define internal zeroext i1 @esp_mem_accepts(ptr noundef %opaque, i64 noundef %addr, i32 noundef %size, i1 noundef zeroext %is_write, i32 %attrs.coerce) #0 {
entry:
  %attrs = alloca %struct.MemTxAttrs, align 4
  %opaque.addr = alloca ptr, align 8
  %addr.addr = alloca i64, align 8
  %size.addr = alloca i32, align 4
  %is_write.addr = alloca i8, align 1
  %coerce.dive = getelementptr inbounds %struct.MemTxAttrs, ptr %attrs, i32 0, i32 0
  store i32 %attrs.coerce, ptr %coerce.dive, align 4
  store ptr %opaque, ptr %opaque.addr, align 8
  store i64 %addr, ptr %addr.addr, align 8
  store i32 %size, ptr %size.addr, align 4
  %frombool = zext i1 %is_write to i8
  store i8 %frombool, ptr %is_write.addr, align 1
  %0 = load i32, ptr %size.addr, align 4
  %cmp = icmp eq i32 %0, 1
  br i1 %cmp, label %lor.end, label %lor.rhs

lor.rhs:                                          ; preds = %entry
  %1 = load i8, ptr %is_write.addr, align 1
  %tobool = trunc i8 %1 to i1
  br i1 %tobool, label %land.rhs, label %land.end

land.rhs:                                         ; preds = %lor.rhs
  %2 = load i32, ptr %size.addr, align 4
  %cmp1 = icmp eq i32 %2, 4
  br label %land.end

land.end:                                         ; preds = %land.rhs, %lor.rhs
  %3 = phi i1 [ false, %lor.rhs ], [ %cmp1, %land.rhs ]
  br label %lor.end

lor.end:                                          ; preds = %land.end, %entry
  %4 = phi i1 [ true, %entry ], [ %3, %land.end ]
  ret i1 %4
}