; Function Attrs: mustprogress nofree norecurse nosync nounwind sspstrong willreturn memory(none) uwtable
define internal noundef zeroext i1 @esp_mem_accepts(ptr readnone captures(none) %opaque, i64 %addr, i32 noundef %size, i1 noundef zeroext %is_write, i32 %attrs.coerce) #6 {
entry:
  %cmp = icmp eq i32 %size, 1
  br i1 %cmp, label %lor.end, label %lor.rhs

lor.rhs:                                          ; preds = %entry
  %cmp1 = icmp eq i32 %size, 4
  %0 = and i1 %is_write, %cmp1
  br label %lor.end

lor.end:                                          ; preds = %lor.rhs, %entry
  %1 = phi i1 [ true, %entry ], [ %0, %lor.rhs ]
  ret i1 %1
}